; Function Attrs: nounwind uwtable
define ptr @Abc_NtkFromMappedGia_rec(ptr noundef %0, ptr noundef %1, i32 noundef %2, i32 noundef %3) local_unnamed_addr #1 {
  %5 = getelementptr i8, ptr %1, i64 32
  %.val36 = load ptr, ptr %5, align 8
  %6 = sext i32 %2 to i64
  %7 = getelementptr inbounds %struct.Gia_Obj_t_, ptr %.val36, i64 %6
  %8 = getelementptr i8, ptr %7, i64 8
  %.val41 = load i32, ptr %8, align 4
  %9 = icmp sgt i32 %.val41, -1
  br i1 %9, label %10, label %16

10:                                               ; preds = %4
  %11 = getelementptr i8, ptr %0, i64 32
  %.val35 = load ptr, ptr %11, align 8
  %12 = getelementptr i8, ptr %.val35, i64 8
  %.val35.val = load ptr, ptr %12, align 8
  %13 = zext nneg i32 %.val41 to i64
  %14 = getelementptr inbounds nuw ptr, ptr %.val35.val, i64 %13
  %15 = load ptr, ptr %14, align 8
  br label %57

16:                                               ; preds = %4
  %.val37 = load i64, ptr %7, align 4
  %17 = trunc i64 %.val37 to i32
  %18 = and i32 %17, 536870911
  %19 = sub nsw i32 %2, %18
  %20 = tail call ptr @Abc_NtkFromMappedGia_rec(ptr noundef %0, ptr noundef nonnull %1, i32 noundef %19, i32 noundef 0)
  %.val38 = load i64, ptr %7, align 4
  %21 = lshr i64 %.val38, 32
  %22 = trunc nuw i64 %21 to i32
  %23 = and i32 %22, 536870911
  %24 = sub nsw i32 %2, %23
  %25 = tail call ptr @Abc_NtkFromMappedGia_rec(ptr noundef %0, ptr noundef nonnull %1, i32 noundef %24, i32 noundef 0)
  %26 = tail call ptr @Abc_NtkCreateObj(ptr noundef %0, i32 noundef 7) #19
  %27 = load i64, ptr %7, align 4
  %28 = and i64 %27, 536870911
  %29 = sub nsw i64 0, %28
  %30 = getelementptr %struct.Gia_Obj_t_, ptr %7, i64 %29, i32 1
  %.val43 = load i32, ptr %30, align 4
  %31 = getelementptr i8, ptr %0, i64 32
  %.val34 = load ptr, ptr %31, align 8
  %32 = getelementptr i8, ptr %.val34, i64 8
  %.val34.val = load ptr, ptr %32, align 8
  %33 = sext i32 %.val43 to i64
  %34 = getelementptr inbounds ptr, ptr %.val34.val, i64 %33
  %35 = load ptr, ptr %34, align 8
  tail call void @Abc_ObjAddFanin(ptr noundef %26, ptr noundef %35) #19
  %36 = load i64, ptr %7, align 4
  %37 = lshr i64 %36, 32
  %38 = and i64 %37, 536870911
  %39 = sub nsw i64 0, %38
  %40 = getelementptr %struct.Gia_Obj_t_, ptr %7, i64 %39, i32 1
  %.val44 = load i32, ptr %40, align 4
  %.val33 = load ptr, ptr %31, align 8
  %41 = getelementptr i8, ptr %.val33, i64 8
  %.val33.val = load ptr, ptr %41, align 8
  %42 = sext i32 %.val44 to i64
  %43 = getelementptr inbounds ptr, ptr %.val33.val, i64 %42
  %44 = load ptr, ptr %43, align 8
  tail call void @Abc_ObjAddFanin(ptr noundef %26, ptr noundef %44) #19
  %45 = getelementptr inbounds nuw i8, ptr %0, i64 256
  %46 = load ptr, ptr %45, align 8
  %47 = tail call ptr @Abc_SopCreateAnd(ptr noundef %46, i32 noundef 2, ptr noundef null) #19
  %48 = getelementptr inbounds nuw i8, ptr %26, i64 56
  store ptr %47, ptr %48, align 8
  %.val39 = load i64, ptr %7, align 4
  %49 = and i64 %.val39, 536870912
  %.not = icmp eq i64 %49, 0
  br i1 %.not, label %51, label %50

50:                                               ; preds = %16
  tail call void @Abc_SopComplementVar(ptr noundef %47, i32 noundef 0) #19
  %.val40.pre = load i64, ptr %7, align 4
  br label %51

51:                                               ; preds = %50, %16
  %.val40 = phi i64 [ %.val40.pre, %50 ], [ %.val39, %16 ]
  %52 = and i64 %.val40, 2305843009213693952
  %.not31 = icmp eq i64 %52, 0
  br i1 %.not31, label %55, label %53

53:                                               ; preds = %51
  %54 = load ptr, ptr %48, align 8
  tail call void @Abc_SopComplementVar(ptr noundef %54, i32 noundef 1) #19
  br label %55

55:                                               ; preds = %53, %51
  %56 = getelementptr i8, ptr %26, i64 16
  %.val = load i32, ptr %56, align 8
  store i32 %.val, ptr %8, align 4
  br label %57

57:                                               ; preds = %55, %10
  %.0 = phi ptr [ %15, %10 ], [ %26, %55 ]
  %.not32 = icmp eq i32 %3, 0
  br i1 %.not32, label %60, label %58

58:                                               ; preds = %57
  %59 = tail call ptr @Abc_NtkCreateNodeInv(ptr noundef nonnull %0, ptr noundef %.0) #19
  br label %60

60:                                               ; preds = %58, %57
  %.1 = phi ptr [ %59, %58 ], [ %.0, %57 ]
  ret ptr %.1
}